; Function Attrs: mustprogress nofree norecurse nosync nounwind memory(readwrite, inaccessiblemem: none) uwtable
define dso_local void @_ZN23btReducedDeformableBody17mapToFullVelocityERK11btTransform(ptr noundef nonnull readonly align 8 captures(none) dereferenceable(3176) %0, ptr noundef nonnull readonly align 4 captures(none) dereferenceable(64) %1) local_unnamed_addr #6 align 2 {
  %3 = getelementptr inbounds nuw i8, ptr %0, i64 2716
  %4 = load i32, ptr %3, align 4, !tbaa !133
  %5 = icmp sgt i32 %4, 0
  br i1 %5, label %.lr.ph, label %._crit_edge

.lr.ph:                                           ; preds = %2
  %6 = getelementptr inbounds nuw i8, ptr %0, i64 944
  br label %7

._crit_edge:                                      ; preds = %7, %2
  ret void

7:                                                ; preds = %.lr.ph, %7
  %indvars.iv = phi i64 [ 0, %.lr.ph ], [ %indvars.iv.next, %7 ]
  %8 = trunc nuw nsw i64 %indvars.iv to i32
  %9 = tail call { <2 x float>, <2 x float> } @_ZNK23btReducedDeformableBody23computeNodeFullVelocityERK11btTransformi(ptr noundef nonnull align 8 dereferenceable(3176) %0, ptr noundef nonnull align 4 dereferenceable(64) %1, i32 noundef %8)
  %10 = extractvalue { <2 x float>, <2 x float> } %9, 0
  %11 = extractvalue { <2 x float>, <2 x float> } %9, 1
  %12 = load ptr, ptr %6, align 8, !tbaa !152
  %13 = getelementptr inbounds nuw %"struct.btSoftBody::Node", ptr %12, i64 %indvars.iv
  %14 = getelementptr inbounds nuw i8, ptr %13, i64 48
  store <2 x float> %10, ptr %14, align 8
  %.sroa.4.0..sroa_idx = getelementptr inbounds nuw i8, ptr %13, i64 56
  store <2 x float> %11, ptr %.sroa.4.0..sroa_idx, align 8, !tbaa !150
  %indvars.iv.next = add nuw nsw i64 %indvars.iv, 1
  %15 = load i32, ptr %3, align 4, !tbaa !133
  %16 = sext i32 %15 to i64
  %17 = icmp slt i64 %indvars.iv.next, %16
  br i1 %17, label %7, label %._crit_edge, !llvm.loop !193
}